; Function Attrs: nofree norecurse nounwind memory(readwrite, inaccessiblemem: none) uwtable
define hidden void @_mi_page_unfull(ptr noundef %0) local_unnamed_addr #5 {
  %2 = getelementptr i8, ptr %0, i64 14
  %.val = load i8, ptr %2, align 2
  %3 = and i8 %.val, 1
  %.not = icmp eq i8 %3, 0
  br i1 %.not, label %36, label %4

4:                                                ; preds = %1
  %5 = getelementptr inbounds nuw i8, ptr %0, i64 48
  %6 = load atomic i64, ptr %5 monotonic, align 8
  %7 = inttoptr i64 %6 to ptr
  %8 = getelementptr inbounds nuw i8, ptr %7, i64 2816
  %9 = getelementptr inbounds nuw i8, ptr %0, i64 28
  %10 = load i32, ptr %9, align 4, !tbaa !36
  %11 = zext i32 %10 to i64
  %12 = add nuw nsw i64 %11, 7
  %13 = lshr i64 %12, 3
  %14 = icmp ult i32 %10, 9
  br i1 %14, label %mi_heap_page_queue_of.exit, label %15

15:                                               ; preds = %4
  %16 = icmp ult i32 %10, 65
  br i1 %16, label %17, label %20

17:                                               ; preds = %15
  %18 = add nuw nsw i64 %13, 1
  %19 = and i64 %18, 30
  br label %mi_heap_page_queue_of.exit

20:                                               ; preds = %15
  %21 = icmp ugt i32 %10, 131072
  br i1 %21, label %mi_heap_page_queue_of.exit, label %22

22:                                               ; preds = %20
  %23 = add nsw i64 %13, -1
  %24 = tail call range(i64 50, 61) i64 @llvm.ctlz.i64(i64 range(i64 8, 16384) %23, i1 true)
  %25 = shl nuw nsw i64 %24, 2
  %26 = xor i64 %25, 252
  %27 = sub nuw nsw i64 61, %24
  %28 = lshr i64 %23, %27
  %29 = and i64 %28, 3
  %30 = add nuw nsw i64 %26, 253
  %31 = add nuw nsw i64 %30, %29
  %32 = and i64 %31, 255
  br label %mi_heap_page_queue_of.exit

mi_heap_page_queue_of.exit:                       ; preds = %4, %17, %20, %22
  %33 = phi i64 [ %19, %17 ], [ %32, %22 ], [ 1, %4 ], [ 73, %20 ]
  %34 = getelementptr inbounds nuw i8, ptr %7, i64 1040
  %35 = getelementptr inbounds nuw [75 x %struct.mi_page_queue_s], ptr %34, i64 0, i64 %33
  store i8 %.val, ptr %2, align 2
  tail call fastcc void @mi_page_queue_enqueue_from(ptr noundef nonnull %35, ptr noundef nonnull %8, ptr noundef nonnull %0)
  br label %36

36:                                               ; preds = %1, %mi_heap_page_queue_of.exit
  ret void
}